(dp1
S'failed'
p2
(lp3
S'10'
p4
aS'12'
p5
aS'32'
p6
aS'33'
p7
asS'source_names'
p8
(lp9
S'.'
asS'ids'
p10
(dp11
I1
(S'/home/jracine/non-bh-code/games_list/gameslist/tests.py'
S'gameslist.tests'
p12
S'CurrentTimeTests.test_current_time_not_played'
tp13
sI2
(S'/home/jracine/non-bh-code/games_list/gameslist/tests.py'
g12
S'CurrentTimeTests.test_negative_current_time'
tp14
sI3
(S'/home/jracine/non-bh-code/games_list/gameslist/tests.py'
g12
S'CurrentTimeTests.test_no_time_yes_played'
tp15
sI4
(S'/home/jracine/non-bh-code/games_list/gameslist/tests.py'
g12
S'CurrentTimeTests.test_valid_current_played'
tp16
sI5
(S'/home/jracine/non-bh-code/games_list/gameslist/tests.py'
g12
S'GameDetailViewTests.test_abandon_game'
tp17
sI6
(S'/home/jracine/non-bh-code/games_list/gameslist/tests.py'
g12
S'GameDetailViewTests.test_beat_game'
tp18
sI7
(S'/home/jracine/non-bh-code/games_list/gameslist/tests.py'
g12
S'GameDetailViewTests.test_create_game'
tp19
sI8
(S'/home/jracine/non-bh-code/games_list/gameslist/tests.py'
g12
S'GameDetailViewTests.test_flag_game'
tp20
sI9
(S'/home/jracine/non-bh-code/games_list/gameslist/tests.py'
g12
S'GameDetailViewTests.test_play_game'
tp21
sI10
(S'/home/jracine/non-bh-code/games_list/gameslist/tests.py'
g12
S'GameIndexViewTests.test_new_game_in_list'
tp22
sI11
(S'/home/jracine/non-bh-code/games_list/gameslist/tests.py'
g12
S'GameIndexViewTests.test_no_games'
tp23
sI12
(S'/home/jracine/non-bh-code/games_list/gameslist/tests.py'
g12
S'GameListViewTests.test_list_filters'
tp24
sI13
(S'/home/jracine/non-bh-code/games_list/gameslist/tests.py'
g12
S'GameModelTests.test_beaten_no_finish'
tp25
sI14
(S'/home/jracine/non-bh-code/games_list/gameslist/tests.py'
g12
S'GameModelTests.test_future_finish_date'
tp26
sI15
(S'/home/jracine/non-bh-code/games_list/gameslist/tests.py'
g12
S'GameModelTests.test_future_purchase_date'
tp27
sI16
(S'/home/jracine/non-bh-code/games_list/gameslist/tests.py'
g12
S'GameModelTests.test_not_beaten_or_abandoned'
tp28
sI17
(S'/home/jracine/non-bh-code/games_list/gameslist/tests.py'
g12
S'GameModelTests.test_not_played'
tp29
sI18
(S'/home/jracine/non-bh-code/games_list/gameslist/tests.py'
g12
S'GameModelTests.test_not_played_but_abandoned'
tp30
sI19
(S'/home/jracine/non-bh-code/games_list/gameslist/tests.py'
g12
S'GameModelTests.test_not_played_but_beaten'
tp31
sI20
(S'/home/jracine/non-bh-code/games_list/gameslist/tests.py'
g12
S'GameModelTests.test_past_finish_date'
tp32
sI21
(S'/home/jracine/non-bh-code/games_list/gameslist/tests.py'
g12
S'GameModelTests.test_past_purchase_date'
tp33
sI22
(S'/home/jracine/non-bh-code/games_list/gameslist/tests.py'
g12
S'GameslistConfigTest.basic_session_test'
tp34
sI23
(S'/home/jracine/non-bh-code/games_list/gameslist/tests.py'
g12
S'GameslistConfigTest.test_apps'
tp35
sI24
(S'/home/jracine/non-bh-code/games_list/gameslist/tests.py'
g12
S'HLTBTest.test_alternate_names_hltb'
tp36
sI25
(S'/home/jracine/non-bh-code/games_list/gameslist/tests.py'
g12
S'HLTBTest.test_example_hltb'
tp37
sI26
(S'/home/jracine/non-bh-code/games_list/gameslist/tests.py'
g12
S'HLTBTest.test_full_time_on_create'
tp38
sI27
(S'/home/jracine/non-bh-code/games_list/gameslist/tests.py'
g12
S'HLTBTest.test_known_bad_hltb'
tp39
sI28
(S'/home/jracine/non-bh-code/games_list/gameslist/tests.py'
g12
S'HLTBTest.test_known_good_hltb'
tp40
sI29
(S'/home/jracine/non-bh-code/games_list/gameslist/tests.py'
g12
S'HLTBTest.test_time_to_beat_not_played'
tp41
sI30
(S'/home/jracine/non-bh-code/games_list/gameslist/tests.py'
g12
S'HLTBTest.test_time_to_beat_partial'
tp42
sI31
(S'/home/jracine/non-bh-code/games_list/gameslist/tests.py'
g12
S'ListDetailRedirectTests.test_known_bad'
tp43
sI32
(S'/home/jracine/non-bh-code/games_list/gameslist/tests.py'
g12
S'ListDetailRedirectTests.test_list'
tp44
sI33
(S'/home/jracine/non-bh-code/games_list/gameslist/tests.py'
g12
S'ListDetailRedirectTests.test_list_detail'
tp45
sI34
(S'/home/jracine/non-bh-code/games_list/gameslist/tests.py'
g12
S'ListDetailRedirectTests.test_list_detail_list'
tp46
sI35
(S'/home/jracine/non-bh-code/games_list/gameslist/tests.py'
g12
S'ListURLHelperTest.test_check_url_args_for_token'
tp47
sI36
(S'/home/jracine/non-bh-code/games_list/gameslist/tests.py'
g12
S'AgingTests.test_aging_abandoned'
tp48
sI37
(S'/home/jracine/non-bh-code/games_list/gameslist/tests.py'
g12
S'AgingTests.test_aging_beaten'
tp49
sI38
(S'/home/jracine/non-bh-code/games_list/gameslist/tests.py'
g12
S'AgingTests.test_aging_not_played'
tp50
sI39
(S'/home/jracine/non-bh-code/games_list/gameslist/tests.py'
g12
S'AgingTests.test_aging_over_year'
tp51
sI40
(S'/home/jracine/non-bh-code/games_list/gameslist/tests.py'
g12
S'AgingTests.test_aging_played'
tp52
sI41
(S'/home/jracine/non-bh-code/games_list/gameslist/tests.py'
g12
S'AgingTests.test_aging_zero'
tp53
sI42
(S'/home/jracine/non-bh-code/games_list/gameslist/tests.py'
g12
S'AgingTests.test_negative_aging'
tp54
ss.